target datalayout = "e-m:e-p270:32:32-p271:32:32-p272:64:64-i64:64-i128:128-f80:128-n8:16:32:64-S128"
target triple = "x86_64-unknown-linux-gnu"

@_ZN5arrow8internalL9max_uintsE = internal constant [9 x i64] [i64 0, i64 255, i64 65535, i64 0, i64 4294967295, i64 0, i64 0, i64 0, i64 -1], align 16

; Function Attrs: mustprogress nounwind uwtable
define internal noundef zeroext i8 @_ZN5arrow8internalL17ExpandedUIntWidthEmh(i64 noundef %val, i8 noundef zeroext %current_width) #0 {
entry:
  %retval = alloca i8, align 1
  %val.addr = alloca i64, align 8
  %current_width.addr = alloca i8, align 1
  store i64 %val, ptr %val.addr, align 8
  store i8 %current_width, ptr %current_width.addr, align 1
  %0 = load i64, ptr %val.addr, align 8
  %1 = load i8, ptr %current_width.addr, align 1
  %idxprom = zext i8 %1 to i64
  %arrayidx = getelementptr inbounds [9 x i64], ptr @_ZN5arrow8internalL9max_uintsE, i64 0, i64 %idxprom
  %2 = load i64, ptr %arrayidx, align 8
  %cmp = icmp ule i64 %0, %2
  %lnot = xor i1 %cmp, true
  %lnot1 = xor i1 %lnot, true
  br i1 %lnot1, label %if.then, label %if.end

if.then:                                          ; preds = %entry
  %3 = load i8, ptr %current_width.addr, align 1
  store i8 %3, ptr %retval, align 1
  br label %return

if.end:                                           ; preds = %entry
  %4 = load i8, ptr %current_width.addr, align 1
  %conv = zext i8 %4 to i32
  %cmp2 = icmp eq i32 %conv, 1
  br i1 %cmp2, label %land.lhs.true, label %if.else

land.lhs.true:                                    ; preds = %if.end
  %5 = load i64, ptr %val.addr, align 8
  %cmp3 = icmp ule i64 %5, 255
  br i1 %cmp3, label %if.then4, label %if.else

if.then4:                                         ; preds = %land.lhs.true
  store i8 1, ptr %retval, align 1
  br label %return

if.else:                                          ; preds = %land.lhs.true, %if.end
  %6 = load i8, ptr %current_width.addr, align 1
  %conv5 = zext i8 %6 to i32
  %cmp6 = icmp sle i32 %conv5, 2
  br i1 %cmp6, label %land.lhs.true7, label %if.else10

land.lhs.true7:                                   ; preds = %if.else
  %7 = load i64, ptr %val.addr, align 8
  %cmp8 = icmp ule i64 %7, 65535
  br i1 %cmp8, label %if.then9, label %if.else10

if.then9:                                         ; preds = %land.lhs.true7
  store i8 2, ptr %retval, align 1
  br label %return

if.else10:                                        ; preds = %land.lhs.true7, %if.else
  %8 = load i8, ptr %current_width.addr, align 1
  %conv11 = zext i8 %8 to i32
  %cmp12 = icmp sle i32 %conv11, 4
  br i1 %cmp12, label %land.lhs.true13, label %if.else16

land.lhs.true13:                                  ; preds = %if.else10
  %9 = load i64, ptr %val.addr, align 8
  %cmp14 = icmp ule i64 %9, 4294967295
  br i1 %cmp14, label %if.then15, label %if.else16

if.then15:                                        ; preds = %land.lhs.true13
  store i8 4, ptr %retval, align 1
  br label %return

if.else16:                                        ; preds = %land.lhs.true13, %if.else10
  store i8 8, ptr %retval, align 1
  br label %return

return:                                           ; preds = %if.else16, %if.then15, %if.then9, %if.then4, %if.then
  %10 = load i8, ptr %retval, align 1
  ret i8 %10
}

; Function Attrs: mustprogress uwtable
define noundef zeroext i8 @_ZN5arrow8internal15DetectUIntWidthEPKmPKhlh(ptr noundef %values, ptr noundef %valid_bytes, i64 noundef %length, i8 noundef zeroext %min_width) #1 {
entry:
  %retval = alloca i8, align 1
  %values.addr = alloca ptr, align 8
  %valid_bytes.addr = alloca ptr, align 8
  %length.addr = alloca i64, align 8
  %min_width.addr = alloca i8, align 1
  %width = alloca i8, align 1
  %p = alloca ptr, align 8
  %end = alloca ptr, align 8
  %b = alloca ptr, align 8
  %u = alloca i64, align 8
  %v = alloca i64, align 8
  %w = alloca i64, align 8
  %x = alloca i64, align 8
  %mask = alloca i64, align 8
  store ptr %values, ptr %values.addr, align 8
  store ptr %valid_bytes, ptr %valid_bytes.addr, align 8
  store i64 %length, ptr %length.addr, align 8
  store i8 %min_width, ptr %min_width.addr, align 1
  %0 = load ptr, ptr %valid_bytes.addr, align 8
  %cmp = icmp eq ptr %0, null
  br i1 %cmp, label %if.then, label %if.end

if.then:                                          ; preds = %entry
  %1 = load ptr, ptr %values.addr, align 8
  %2 = load i64, ptr %length.addr, align 8
  %3 = load i8, ptr %min_width.addr, align 1
  %call = call noundef zeroext i8 @_ZN5arrow8internal15DetectUIntWidthEPKmlh(ptr noundef %1, i64 noundef %2, i8 noundef zeroext %3)
  store i8 %call, ptr %retval, align 1
  br label %return

if.end:                                           ; preds = %entry
  %4 = load i8, ptr %min_width.addr, align 1
  store i8 %4, ptr %width, align 1
  %5 = load i8, ptr %min_width.addr, align 1
  %conv = zext i8 %5 to i32
  %cmp1 = icmp slt i32 %conv, 8
  br i1 %cmp1, label %if.then2, label %if.end79

if.then2:                                         ; preds = %if.end
  %6 = load ptr, ptr %values.addr, align 8
  store ptr %6, ptr %p, align 8
  %7 = load ptr, ptr %p, align 8
  %8 = load i64, ptr %length.addr, align 8
  %add.ptr = getelementptr inbounds i64, ptr %7, i64 %8
  store ptr %add.ptr, ptr %end, align 8
  %9 = load ptr, ptr %valid_bytes.addr, align 8
  store ptr %9, ptr %b, align 8
  br label %while.cond

while.cond:                                       ; preds = %if.end65, %if.then2
  %10 = load ptr, ptr %p, align 8
  %11 = load ptr, ptr %end, align 8
  %add.ptr3 = getelementptr inbounds i64, ptr %11, i64 -8
  %cmp4 = icmp ule ptr %10, %add.ptr3
  br i1 %cmp4, label %while.body, label %while.end

while.body:                                       ; preds = %while.cond
  %12 = load ptr, ptr %p, align 8
  %arrayidx = getelementptr inbounds i64, ptr %12, i64 0
  %13 = load i64, ptr %arrayidx, align 8
  %14 = load ptr, ptr %b, align 8
  %arrayidx5 = getelementptr inbounds i8, ptr %14, i64 0
  %15 = load i8, ptr %arrayidx5, align 1
  %conv6 = zext i8 %15 to i32
  %cmp7 = icmp ne i32 %conv6, 0
  %conv8 = zext i1 %cmp7 to i64
  %mul = mul i64 %13, %conv8
  store i64 %mul, ptr %u, align 8
  %16 = load ptr, ptr %p, align 8
  %arrayidx9 = getelementptr inbounds i64, ptr %16, i64 1
  %17 = load i64, ptr %arrayidx9, align 8
  %18 = load ptr, ptr %b, align 8
  %arrayidx10 = getelementptr inbounds i8, ptr %18, i64 1
  %19 = load i8, ptr %arrayidx10, align 1
  %conv11 = zext i8 %19 to i32
  %cmp12 = icmp ne i32 %conv11, 0
  %conv13 = zext i1 %cmp12 to i64
  %mul14 = mul i64 %17, %conv13
  store i64 %mul14, ptr %v, align 8
  %20 = load ptr, ptr %p, align 8
  %arrayidx15 = getelementptr inbounds i64, ptr %20, i64 2
  %21 = load i64, ptr %arrayidx15, align 8
  %22 = load ptr, ptr %b, align 8
  %arrayidx16 = getelementptr inbounds i8, ptr %22, i64 2
  %23 = load i8, ptr %arrayidx16, align 1
  %conv17 = zext i8 %23 to i32
  %cmp18 = icmp ne i32 %conv17, 0
  %conv19 = zext i1 %cmp18 to i64
  %mul20 = mul i64 %21, %conv19
  store i64 %mul20, ptr %w, align 8
  %24 = load ptr, ptr %p, align 8
  %arrayidx21 = getelementptr inbounds i64, ptr %24, i64 3
  %25 = load i64, ptr %arrayidx21, align 8
  %26 = load ptr, ptr %b, align 8
  %arrayidx22 = getelementptr inbounds i8, ptr %26, i64 3
  %27 = load i8, ptr %arrayidx22, align 1
  %conv23 = zext i8 %27 to i32
  %cmp24 = icmp ne i32 %conv23, 0
  %conv25 = zext i1 %cmp24 to i64
  %mul26 = mul i64 %25, %conv25
  store i64 %mul26, ptr %x, align 8
  %28 = load ptr, ptr %p, align 8
  %arrayidx27 = getelementptr inbounds i64, ptr %28, i64 4
  %29 = load i64, ptr %arrayidx27, align 8
  %30 = load ptr, ptr %b, align 8
  %arrayidx28 = getelementptr inbounds i8, ptr %30, i64 4
  %31 = load i8, ptr %arrayidx28, align 1
  %conv29 = zext i8 %31 to i32
  %cmp30 = icmp ne i32 %conv29, 0
  %conv31 = zext i1 %cmp30 to i64
  %mul32 = mul i64 %29, %conv31
  %32 = load i64, ptr %u, align 8
  %or = or i64 %32, %mul32
  store i64 %or, ptr %u, align 8
  %33 = load ptr, ptr %p, align 8
  %arrayidx33 = getelementptr inbounds i64, ptr %33, i64 5
  %34 = load i64, ptr %arrayidx33, align 8
  %35 = load ptr, ptr %b, align 8
  %arrayidx34 = getelementptr inbounds i8, ptr %35, i64 5
  %36 = load i8, ptr %arrayidx34, align 1
  %conv35 = zext i8 %36 to i32
  %cmp36 = icmp ne i32 %conv35, 0
  %conv37 = zext i1 %cmp36 to i64
  %mul38 = mul i64 %34, %conv37
  %37 = load i64, ptr %v, align 8
  %or39 = or i64 %37, %mul38
  store i64 %or39, ptr %v, align 8
  %38 = load ptr, ptr %p, align 8
  %arrayidx40 = getelementptr inbounds i64, ptr %38, i64 6
  %39 = load i64, ptr %arrayidx40, align 8
  %40 = load ptr, ptr %b, align 8
  %arrayidx41 = getelementptr inbounds i8, ptr %40, i64 6
  %41 = load i8, ptr %arrayidx41, align 1
  %conv42 = zext i8 %41 to i32
  %cmp43 = icmp ne i32 %conv42, 0
  %conv44 = zext i1 %cmp43 to i64
  %mul45 = mul i64 %39, %conv44
  %42 = load i64, ptr %w, align 8
  %or46 = or i64 %42, %mul45
  store i64 %or46, ptr %w, align 8
  %43 = load ptr, ptr %p, align 8
  %arrayidx47 = getelementptr inbounds i64, ptr %43, i64 7
  %44 = load i64, ptr %arrayidx47, align 8
  %45 = load ptr, ptr %b, align 8
  %arrayidx48 = getelementptr inbounds i8, ptr %45, i64 7
  %46 = load i8, ptr %arrayidx48, align 1
  %conv49 = zext i8 %46 to i32
  %cmp50 = icmp ne i32 %conv49, 0
  %conv51 = zext i1 %cmp50 to i64
  %mul52 = mul i64 %44, %conv51
  %47 = load i64, ptr %x, align 8
  %or53 = or i64 %47, %mul52
  store i64 %or53, ptr %x, align 8
  %48 = load ptr, ptr %b, align 8
  %add.ptr54 = getelementptr inbounds i8, ptr %48, i64 8
  store ptr %add.ptr54, ptr %b, align 8
  %49 = load ptr, ptr %p, align 8
  %add.ptr55 = getelementptr inbounds i64, ptr %49, i64 8
  store ptr %add.ptr55, ptr %p, align 8
  %50 = load i64, ptr %u, align 8
  %51 = load i64, ptr %v, align 8
  %or56 = or i64 %50, %51
  %52 = load i64, ptr %w, align 8
  %or57 = or i64 %or56, %52
  %53 = load i64, ptr %x, align 8
  %or58 = or i64 %or57, %53
  %54 = load i8, ptr %width, align 1
  %call59 = call noundef zeroext i8 @_ZN5arrow8internalL17ExpandedUIntWidthEmh(i64 noundef %or58, i8 noundef zeroext %54)
  store i8 %call59, ptr %width, align 1
  %55 = load i8, ptr %width, align 1
  %conv60 = zext i8 %55 to i32
  %cmp61 = icmp eq i32 %conv60, 8
  %lnot = xor i1 %cmp61, true
  %lnot62 = xor i1 %lnot, true
  br i1 %lnot62, label %if.then64, label %if.end65

if.then64:                                        ; preds = %while.body
  br label %while.end

if.end65:                                         ; preds = %while.body
  br label %while.cond, !llvm.loop !135

while.end:                                        ; preds = %if.then64, %while.cond
  store i64 0, ptr %mask, align 8
  br label %while.cond66

while.cond66:                                     ; preds = %while.body68, %while.end
  %56 = load ptr, ptr %p, align 8
  %57 = load ptr, ptr %end, align 8
  %cmp67 = icmp ult ptr %56, %57
  br i1 %cmp67, label %while.body68, label %while.end77

while.body68:                                     ; preds = %while.cond66
  %58 = load ptr, ptr %p, align 8
  %arrayidx69 = getelementptr inbounds i64, ptr %58, i64 0
  %59 = load i64, ptr %arrayidx69, align 8
  %60 = load ptr, ptr %b, align 8
  %arrayidx70 = getelementptr inbounds i8, ptr %60, i64 0
  %61 = load i8, ptr %arrayidx70, align 1
  %conv71 = zext i8 %61 to i32
  %cmp72 = icmp ne i32 %conv71, 0
  %conv73 = zext i1 %cmp72 to i64
  %mul74 = mul i64 %59, %conv73
  %62 = load i64, ptr %mask, align 8
  %or75 = or i64 %62, %mul74
  store i64 %or75, ptr %mask, align 8
  %63 = load ptr, ptr %b, align 8
  %incdec.ptr = getelementptr inbounds i8, ptr %63, i32 1
  store ptr %incdec.ptr, ptr %b, align 8
  %64 = load ptr, ptr %p, align 8
  %incdec.ptr76 = getelementptr inbounds i64, ptr %64, i32 1
  store ptr %incdec.ptr76, ptr %p, align 8
  br label %while.cond66, !llvm.loop !136

while.end77:                                      ; preds = %while.cond66
  %65 = load i64, ptr %mask, align 8
  %66 = load i8, ptr %width, align 1
  %call78 = call noundef zeroext i8 @_ZN5arrow8internalL17ExpandedUIntWidthEmh(i64 noundef %65, i8 noundef zeroext %66)
  store i8 %call78, ptr %width, align 1
  br label %if.end79

if.end79:                                         ; preds = %while.end77, %if.end
  %67 = load i8, ptr %width, align 1
  store i8 %67, ptr %retval, align 1
  br label %return

return:                                           ; preds = %if.end79, %if.then
  %68 = load i8, ptr %retval, align 1
  ret i8 %68
}