; Function Attrs: mustprogress nofree norecurse nosync nounwind willreturn memory(read, inaccessiblemem: none) uwtable
define noundef zeroext i8 @_ZN5arrow8internal15DetectUIntWidthEPKmPKhlh(ptr noundef readonly %values, ptr noundef readonly %valid_bytes, i64 noundef %length, i8 noundef zeroext %min_width) local_unnamed_addr #1 {
entry:
  %cmp = icmp eq ptr %valid_bytes, null
  br i1 %cmp, label %if.then, label %if.end

if.then:                                          ; preds = %entry
  %call = tail call noundef zeroext i8 @_ZN5arrow8internal15DetectUIntWidthEPKmlh(ptr noundef %values, i64 noundef %length, i8 noundef zeroext %min_width)
  br label %return

if.end:                                           ; preds = %entry
  %cmp1 = icmp ult i8 %min_width, 8
  br i1 %cmp1, label %if.then2, label %return

if.then2:                                         ; preds = %if.end
  %add.ptr = getelementptr inbounds i64, ptr %values, i64 %length
  %add.ptr3 = getelementptr inbounds i8, ptr %add.ptr, i64 -64
  %cmp4.not58 = icmp ult ptr %add.ptr3, %values
  br i1 %cmp4.not58, label %while.end, label %while.body

while.body:                                       ; preds = %if.then2, %_ZN5arrow8internalL17ExpandedUIntWidthEmh.exit
  %width.061 = phi i8 [ %retval.0.i, %_ZN5arrow8internalL17ExpandedUIntWidthEmh.exit ], [ %min_width, %if.then2 ]
  %p.060 = phi ptr [ %add.ptr55, %_ZN5arrow8internalL17ExpandedUIntWidthEmh.exit ], [ %values, %if.then2 ]
  %b.059 = phi ptr [ %add.ptr54, %_ZN5arrow8internalL17ExpandedUIntWidthEmh.exit ], [ %valid_bytes, %if.then2 ]
  %0 = load <8 x i64>, ptr %p.060, align 8
  %1 = load <8 x i8>, ptr %b.059, align 1
  %2 = icmp eq <8 x i8> %1, zeroinitializer
  %3 = select <8 x i1> %2, <8 x i64> zeroinitializer, <8 x i64> %0
  %add.ptr54 = getelementptr inbounds i8, ptr %b.059, i64 8
  %add.ptr55 = getelementptr inbounds i8, ptr %p.060, i64 64
  %4 = tail call i64 @llvm.vector.reduce.or.v8i64(<8 x i64> %3)
  %idxprom.i = zext i8 %width.061 to i64
  %arrayidx.i = getelementptr inbounds [9 x i64], ptr @_ZN5arrow8internalL9max_uintsE, i64 0, i64 %idxprom.i
  %5 = load i64, ptr %arrayidx.i, align 8
  %cmp.not.i = icmp ult i64 %5, %4
  br i1 %cmp.not.i, label %if.end.i, label %_ZN5arrow8internalL17ExpandedUIntWidthEmh.exit

if.end.i:                                         ; preds = %while.body
  %cmp2.i = icmp eq i8 %width.061, 1
  %cmp3.i = icmp ult i64 %4, 256
  %or.cond.i = and i1 %cmp2.i, %cmp3.i
  br i1 %or.cond.i, label %_ZN5arrow8internalL17ExpandedUIntWidthEmh.exit, label %if.else.i

if.else.i:                                        ; preds = %if.end.i
  %cmp6.i = icmp ult i8 %width.061, 3
  %cmp8.i = icmp ult i64 %4, 65536
  %or.cond1.i = and i1 %cmp6.i, %cmp8.i
  br i1 %or.cond1.i, label %_ZN5arrow8internalL17ExpandedUIntWidthEmh.exit, label %if.else10.i

if.else10.i:                                      ; preds = %if.else.i
  %cmp12.i = icmp ult i8 %width.061, 5
  %cmp14.i = icmp ult i64 %4, 4294967296
  %or.cond2.i = and i1 %cmp12.i, %cmp14.i
  br i1 %or.cond2.i, label %_ZN5arrow8internalL17ExpandedUIntWidthEmh.exit, label %while.end

_ZN5arrow8internalL17ExpandedUIntWidthEmh.exit:   ; preds = %if.else10.i, %while.body, %if.end.i, %if.else.i
  %retval.0.i = phi i8 [ %width.061, %while.body ], [ 1, %if.end.i ], [ 2, %if.else.i ], [ 4, %if.else10.i ]
  %cmp4.not = icmp ugt ptr %add.ptr55, %add.ptr3
  br i1 %cmp4.not, label %while.end, label %while.body, !llvm.loop !135

while.end:                                        ; preds = %_ZN5arrow8internalL17ExpandedUIntWidthEmh.exit, %if.else10.i, %if.then2
  %b.1 = phi ptr [ %valid_bytes, %if.then2 ], [ %add.ptr54, %if.else10.i ], [ %add.ptr54, %_ZN5arrow8internalL17ExpandedUIntWidthEmh.exit ]
  %p.1 = phi ptr [ %values, %if.then2 ], [ %add.ptr55, %if.else10.i ], [ %add.ptr55, %_ZN5arrow8internalL17ExpandedUIntWidthEmh.exit ]
  %width.1 = phi i8 [ %min_width, %if.then2 ], [ %retval.0.i, %_ZN5arrow8internalL17ExpandedUIntWidthEmh.exit ], [ 8, %if.else10.i ]
  %cmp6767 = icmp ult ptr %p.1, %add.ptr
  br i1 %cmp6767, label %while.body68, label %return

while.body68:                                     ; preds = %while.end, %while.body68
  %mask.070 = phi i64 [ %or75, %while.body68 ], [ 0, %while.end ]
  %p.269 = phi ptr [ %incdec.ptr76, %while.body68 ], [ %p.1, %while.end ]
  %b.268 = phi ptr [ %incdec.ptr, %while.body68 ], [ %b.1, %while.end ]
  %6 = load i64, ptr %p.269, align 8
  %7 = load i8, ptr %b.268, align 1
  %cmp72.not = icmp eq i8 %7, 0
  %mul74 = select i1 %cmp72.not, i64 0, i64 %6
  %or75 = or i64 %mul74, %mask.070
  %incdec.ptr = getelementptr inbounds i8, ptr %b.268, i64 1
  %incdec.ptr76 = getelementptr inbounds i8, ptr %p.269, i64 8
  %cmp67 = icmp ult ptr %incdec.ptr76, %add.ptr
  br i1 %cmp67, label %while.body68, label %while.end77, !llvm.loop !136

while.end77:                                      ; preds = %while.body68
  %idxprom.i38 = zext i8 %width.1 to i64
  %arrayidx.i39 = getelementptr inbounds [9 x i64], ptr @_ZN5arrow8internalL9max_uintsE, i64 0, i64 %idxprom.i38
  %8 = load i64, ptr %arrayidx.i39, align 8
  %cmp.not.i40 = icmp ult i64 %8, %or75
  br i1 %cmp.not.i40, label %if.end.i42, label %return

if.end.i42:                                       ; preds = %while.end77
  %cmp2.i43 = icmp eq i8 %width.1, 1
  %cmp3.i44 = icmp ult i64 %or75, 256
  %or.cond.i45 = and i1 %cmp2.i43, %cmp3.i44
  br i1 %or.cond.i45, label %return, label %if.else.i46

if.else.i46:                                      ; preds = %if.end.i42
  %cmp6.i47 = icmp ult i8 %width.1, 3
  %cmp8.i48 = icmp ult i64 %or75, 65536
  %or.cond1.i49 = and i1 %cmp6.i47, %cmp8.i48
  br i1 %or.cond1.i49, label %return, label %if.else10.i50

if.else10.i50:                                    ; preds = %if.else.i46
  %cmp12.i51 = icmp ult i8 %width.1, 5
  %cmp14.i52 = icmp ult i64 %or75, 4294967296
  %or.cond2.i53 = and i1 %cmp12.i51, %cmp14.i52
  %..i54 = select i1 %or.cond2.i53, i8 4, i8 8
  br label %return

return:                                           ; preds = %while.end, %if.else10.i50, %if.else.i46, %if.end.i42, %while.end77, %if.end, %if.then
  %retval.0 = phi i8 [ %call, %if.then ], [ %min_width, %if.end ], [ %width.1, %while.end77 ], [ 1, %if.end.i42 ], [ 2, %if.else.i46 ], [ %..i54, %if.else10.i50 ], [ %width.1, %while.end ]
  ret i8 %retval.0
}